; Function Attrs: mustprogress uwtable
define void @_ZN5faiss17IndexPreTransform5resetEv(ptr noundef nonnull align 8 captures(none) dereferenceable(73) initializes((16, 24)) %0) unnamed_addr #1 align 2 {
  %2 = getelementptr inbounds nuw i8, ptr %0, i64 64
  %3 = load ptr, ptr %2, align 8, !tbaa !4
  %4 = load ptr, ptr %3, align 8, !tbaa !42
  %5 = getelementptr inbounds nuw i8, ptr %4, i64 64
  %6 = load ptr, ptr %5, align 8
  tail call void %6(ptr noundef nonnull align 8 dereferenceable(36) %3)
  %7 = getelementptr inbounds nuw i8, ptr %0, i64 16
  store i64 0, ptr %7, align 8, !tbaa !52
  ret void
}